ARM GAS  C:\Users\JOHNSO~1\AppData\Local\Temp\cclwyB2O.s 			page 1


   1              		.cpu cortex-m0
   2              		.fpu softvfp
   3              		.eabi_attribute 20, 1
   4              		.eabi_attribute 21, 1
   5              		.eabi_attribute 23, 3
   6              		.eabi_attribute 24, 1
   7              		.eabi_attribute 25, 1
   8              		.eabi_attribute 26, 1
   9              		.eabi_attribute 30, 6
  10              		.eabi_attribute 34, 0
  11              		.eabi_attribute 18, 4
  12              		.code	16
  13              		.file	"main.c"
  14              		.text
  15              	.Ltext0:
  16              		.cfi_sections	.debug_frame
  17              		.section	.text.main,"ax",%progbits
  18              		.align	2
  19              		.global	main
  20              		.code	16
  21              		.thumb_func
  22              		.type	main, %function
  23              	main:
  24              	.LFB33:
  25              		.file 1 ".\\main.c"
   1:.\main.c      **** /* ========================================
   2:.\main.c      ****  *
   3:.\main.c      ****  * Copyright YOUR COMPANY, THE YEAR
   4:.\main.c      ****  * All Rights Reserved
   5:.\main.c      ****  * UNPUBLISHED, LICENSED SOFTWARE.
   6:.\main.c      ****  *
   7:.\main.c      ****  * CONFIDENTIAL AND PROPRIETARY INFORMATION
   8:.\main.c      ****  * WHICH IS THE PROPERTY OF your company.
   9:.\main.c      ****  *
  10:.\main.c      ****  * ========================================
  11:.\main.c      **** */
  12:.\main.c      **** #include <project.h>
  13:.\main.c      **** 
  14:.\main.c      **** int main()
  15:.\main.c      **** {
  26              		.loc 1 15 0
  27              		.cfi_startproc
  28 0000 80B5     		push	{r7, lr}
  29              		.cfi_def_cfa_offset 8
  30              		.cfi_offset 7, -8
  31              		.cfi_offset 14, -4
  32 0002 82B0     		sub	sp, sp, #8
  33              		.cfi_def_cfa_offset 16
  34 0004 00AF     		add	r7, sp, #0
  35              		.cfi_def_cfa_register 7
  16:.\main.c      ****     Timer_1_Start();
  36              		.loc 1 16 0
  37 0006 FFF7FEFF 		bl	Timer_1_Start
  38              	.L6:
  39              	.LBB2:
  17:.\main.c      ****     
  18:.\main.c      **** 
ARM GAS  C:\Users\JOHNSO~1\AppData\Local\Temp\cclwyB2O.s 			page 2


  19:.\main.c      ****     /* CyGlobalIntEnable; */ /* Uncomment this line to enable global interrupts. */
  20:.\main.c      ****     for(;;)
  21:.\main.c      ****     {
  22:.\main.c      **** 
  23:.\main.c      ****         uint16 timer1 = Timer_1_ReadCapture();
  40              		.loc 1 23 0
  41 000a FFF7FEFF 		bl	Timer_1_ReadCapture
  42 000e 021C     		mov	r2, r0
  43 0010 BB1D     		add	r3, r7, #6
  44 0012 1A80     		strh	r2, [r3]
  24:.\main.c      ****        
  25:.\main.c      ****         if (timer1 >= 1000 && timer1 <= 2000)
  45              		.loc 1 25 0
  46 0014 BB1D     		add	r3, r7, #6
  47 0016 1A88     		ldrh	r2, [r3]
  48 0018 114B     		ldr	r3, .L7
  49 001a 9A42     		cmp	r2, r3
  50 001c 18D9     		bls	.L2
  51              		.loc 1 25 0 is_stmt 0 discriminator 1
  52 001e BB1D     		add	r3, r7, #6
  53 0020 1A88     		ldrh	r2, [r3]
  54 0022 FA23     		mov	r3, #250
  55 0024 DB00     		lsl	r3, r3, #3
  56 0026 9A42     		cmp	r2, r3
  57 0028 12D8     		bhi	.L2
  26:.\main.c      ****         {
  27:.\main.c      ****             if (timer1 > 1500)
  58              		.loc 1 27 0 is_stmt 1
  59 002a BB1D     		add	r3, r7, #6
  60 002c 1A88     		ldrh	r2, [r3]
  61 002e 0D4B     		ldr	r3, .L7+4
  62 0030 9A42     		cmp	r2, r3
  63 0032 06D9     		bls	.L3
  28:.\main.c      ****             {
  29:.\main.c      ****                 LED_Write(1);
  64              		.loc 1 29 0
  65 0034 0120     		mov	r0, #1
  66 0036 FFF7FEFF 		bl	LED_Write
  30:.\main.c      ****                 INPUT_SELECT_Write(1);
  67              		.loc 1 30 0
  68 003a 0120     		mov	r0, #1
  69 003c FFF7FEFF 		bl	INPUT_SELECT_Write
  27:.\main.c      ****             if (timer1 > 1500)
  70              		.loc 1 27 0
  71 0040 0DE0     		b	.L5
  72              	.L3:
  31:.\main.c      ****             }
  32:.\main.c      ****             else
  33:.\main.c      ****             {
  34:.\main.c      ****                 LED_Write(0);
  73              		.loc 1 34 0
  74 0042 0020     		mov	r0, #0
  75 0044 FFF7FEFF 		bl	LED_Write
  35:.\main.c      ****                 INPUT_SELECT_Write(0);
  76              		.loc 1 35 0
  77 0048 0020     		mov	r0, #0
  78 004a FFF7FEFF 		bl	INPUT_SELECT_Write
ARM GAS  C:\Users\JOHNSO~1\AppData\Local\Temp\cclwyB2O.s 			page 3


  27:.\main.c      ****             if (timer1 > 1500)
  79              		.loc 1 27 0
  80 004e 06E0     		b	.L5
  81              	.L2:
  36:.\main.c      ****             }
  37:.\main.c      ****         }
  38:.\main.c      ****         else
  39:.\main.c      ****         {
  40:.\main.c      ****             INPUT_SELECT_Write(0);
  82              		.loc 1 40 0
  83 0050 0020     		mov	r0, #0
  84 0052 FFF7FEFF 		bl	INPUT_SELECT_Write
  41:.\main.c      ****             LED_Write(0);
  85              		.loc 1 41 0
  86 0056 0020     		mov	r0, #0
  87 0058 FFF7FEFF 		bl	LED_Write
  88              	.LBE2:
  42:.\main.c      ****         }
  43:.\main.c      ****         
  44:.\main.c      **** 
  45:.\main.c      ****     }
  89              		.loc 1 45 0
  90 005c D5E7     		b	.L6
  91              	.L5:
  92 005e D4E7     		b	.L6
  93              	.L8:
  94              		.align	2
  95              	.L7:
  96 0060 E7030000 		.word	999
  97 0064 DC050000 		.word	1500
  98              		.cfi_endproc
  99              	.LFE33:
 100              		.size	main, .-main
 101              		.text
 102              	.Letext0:
 103              		.file 2 ".\\Generated_Source\\PSoC4/cytypes.h"