ARM GAS  C:\Users\JOHNSO~1\AppData\Local\Temp\ccC7Qqli.s 			page 1


   1              		.cpu cortex-m0
   2              		.fpu softvfp
   3              		.eabi_attribute 20, 1
   4              		.eabi_attribute 21, 1
   5              		.eabi_attribute 23, 3
   6              		.eabi_attribute 24, 1
   7              		.eabi_attribute 25, 1
   8              		.eabi_attribute 26, 1
   9              		.eabi_attribute 30, 6
  10              		.eabi_attribute 34, 0
  11              		.eabi_attribute 18, 4
  12              		.code	16
  13              		.file	"OUTPUT_SELECT.c"
  14              		.text
  15              	.Ltext0:
  16              		.cfi_sections	.debug_frame
  17              		.section	.text.OUTPUT_SELECT_Write,"ax",%progbits
  18              		.align	2
  19              		.global	OUTPUT_SELECT_Write
  20              		.code	16
  21              		.thumb_func
  22              		.type	OUTPUT_SELECT_Write, %function
  23              	OUTPUT_SELECT_Write:
  24              	.LFB0:
  25              		.file 1 ".\\Generated_Source\\PSoC4\\OUTPUT_SELECT.c"
   1:.\Generated_Source\PSoC4/OUTPUT_SELECT.c **** /*******************************************************************************
   2:.\Generated_Source\PSoC4/OUTPUT_SELECT.c **** * File Name: OUTPUT_SELECT.c  
   3:.\Generated_Source\PSoC4/OUTPUT_SELECT.c **** * Version 2.10
   4:.\Generated_Source\PSoC4/OUTPUT_SELECT.c **** *
   5:.\Generated_Source\PSoC4/OUTPUT_SELECT.c **** * Description:
   6:.\Generated_Source\PSoC4/OUTPUT_SELECT.c **** *  This file contains API to enable firmware control of a Pins component.
   7:.\Generated_Source\PSoC4/OUTPUT_SELECT.c **** *
   8:.\Generated_Source\PSoC4/OUTPUT_SELECT.c **** * Note:
   9:.\Generated_Source\PSoC4/OUTPUT_SELECT.c **** *
  10:.\Generated_Source\PSoC4/OUTPUT_SELECT.c **** ********************************************************************************
  11:.\Generated_Source\PSoC4/OUTPUT_SELECT.c **** * Copyright 2008-2014, Cypress Semiconductor Corporation.  All rights reserved.
  12:.\Generated_Source\PSoC4/OUTPUT_SELECT.c **** * You may use this file only in accordance with the license, terms, conditions, 
  13:.\Generated_Source\PSoC4/OUTPUT_SELECT.c **** * disclaimers, and limitations in the end user license agreement accompanying 
  14:.\Generated_Source\PSoC4/OUTPUT_SELECT.c **** * the software package with which this file was provided.
  15:.\Generated_Source\PSoC4/OUTPUT_SELECT.c **** *******************************************************************************/
  16:.\Generated_Source\PSoC4/OUTPUT_SELECT.c **** 
  17:.\Generated_Source\PSoC4/OUTPUT_SELECT.c **** #include "cytypes.h"
  18:.\Generated_Source\PSoC4/OUTPUT_SELECT.c **** #include "OUTPUT_SELECT.h"
  19:.\Generated_Source\PSoC4/OUTPUT_SELECT.c **** 
  20:.\Generated_Source\PSoC4/OUTPUT_SELECT.c **** #define SetP4PinDriveMode(shift, mode)  \
  21:.\Generated_Source\PSoC4/OUTPUT_SELECT.c ****     do { \
  22:.\Generated_Source\PSoC4/OUTPUT_SELECT.c ****         OUTPUT_SELECT_PC =   (OUTPUT_SELECT_PC & \
  23:.\Generated_Source\PSoC4/OUTPUT_SELECT.c ****                                 (uint32)(~(uint32)(OUTPUT_SELECT_DRIVE_MODE_IND_MASK << (OUTPUT_SEL
  24:.\Generated_Source\PSoC4/OUTPUT_SELECT.c ****                                 (uint32)((uint32)(mode) << (OUTPUT_SELECT_DRIVE_MODE_BITS * (shift)
  25:.\Generated_Source\PSoC4/OUTPUT_SELECT.c ****     } while (0)
  26:.\Generated_Source\PSoC4/OUTPUT_SELECT.c **** 
  27:.\Generated_Source\PSoC4/OUTPUT_SELECT.c **** 
  28:.\Generated_Source\PSoC4/OUTPUT_SELECT.c **** /*******************************************************************************
  29:.\Generated_Source\PSoC4/OUTPUT_SELECT.c **** * Function Name: OUTPUT_SELECT_Write
  30:.\Generated_Source\PSoC4/OUTPUT_SELECT.c **** ********************************************************************************
  31:.\Generated_Source\PSoC4/OUTPUT_SELECT.c **** *
  32:.\Generated_Source\PSoC4/OUTPUT_SELECT.c **** * Summary:
ARM GAS  C:\Users\JOHNSO~1\AppData\Local\Temp\ccC7Qqli.s 			page 2


  33:.\Generated_Source\PSoC4/OUTPUT_SELECT.c **** *  Assign a new value to the digital port's data output register.  
  34:.\Generated_Source\PSoC4/OUTPUT_SELECT.c **** *
  35:.\Generated_Source\PSoC4/OUTPUT_SELECT.c **** * Parameters:  
  36:.\Generated_Source\PSoC4/OUTPUT_SELECT.c **** *  prtValue:  The value to be assigned to the Digital Port. 
  37:.\Generated_Source\PSoC4/OUTPUT_SELECT.c **** *
  38:.\Generated_Source\PSoC4/OUTPUT_SELECT.c **** * Return: 
  39:.\Generated_Source\PSoC4/OUTPUT_SELECT.c **** *  None 
  40:.\Generated_Source\PSoC4/OUTPUT_SELECT.c **** *  
  41:.\Generated_Source\PSoC4/OUTPUT_SELECT.c **** *******************************************************************************/
  42:.\Generated_Source\PSoC4/OUTPUT_SELECT.c **** void OUTPUT_SELECT_Write(uint8 value) 
  43:.\Generated_Source\PSoC4/OUTPUT_SELECT.c **** {
  26              		.loc 1 43 0
  27              		.cfi_startproc
  28 0000 80B5     		push	{r7, lr}
  29              		.cfi_def_cfa_offset 8
  30              		.cfi_offset 7, -8
  31              		.cfi_offset 14, -4
  32 0002 84B0     		sub	sp, sp, #16
  33              		.cfi_def_cfa_offset 24
  34 0004 00AF     		add	r7, sp, #0
  35              		.cfi_def_cfa_register 7
  36 0006 021C     		mov	r2, r0
  37 0008 FB1D     		add	r3, r7, #7
  38 000a 1A70     		strb	r2, [r3]
  44:.\Generated_Source\PSoC4/OUTPUT_SELECT.c ****     uint8 drVal = (uint8)(OUTPUT_SELECT_DR & (uint8)(~OUTPUT_SELECT_MASK));
  39              		.loc 1 44 0
  40 000c 0D4B     		ldr	r3, .L2
  41 000e 1B68     		ldr	r3, [r3]
  42 0010 DAB2     		uxtb	r2, r3
  43 0012 3B1C     		mov	r3, r7
  44 0014 0F33     		add	r3, r3, #15
  45 0016 0721     		mov	r1, #7
  46 0018 8A43     		bic	r2, r1
  47 001a 1A70     		strb	r2, [r3]
  45:.\Generated_Source\PSoC4/OUTPUT_SELECT.c ****     drVal = (drVal | ((uint8)(value << OUTPUT_SELECT_SHIFT) & OUTPUT_SELECT_MASK));
  48              		.loc 1 45 0
  49 001c FB1D     		add	r3, r7, #7
  50 001e 1A78     		ldrb	r2, [r3]
  51 0020 0723     		mov	r3, #7
  52 0022 1340     		and	r3, r2
  53 0024 D9B2     		uxtb	r1, r3
  54 0026 3B1C     		mov	r3, r7
  55 0028 0F33     		add	r3, r3, #15
  56 002a 3A1C     		mov	r2, r7
  57 002c 0F32     		add	r2, r2, #15
  58 002e 1278     		ldrb	r2, [r2]
  59 0030 0A43     		orr	r2, r1
  60 0032 1A70     		strb	r2, [r3]
  46:.\Generated_Source\PSoC4/OUTPUT_SELECT.c ****     OUTPUT_SELECT_DR = (uint32)drVal;
  61              		.loc 1 46 0
  62 0034 034B     		ldr	r3, .L2
  63 0036 3A1C     		mov	r2, r7
  64 0038 0F32     		add	r2, r2, #15
  65 003a 1278     		ldrb	r2, [r2]
  66 003c 1A60     		str	r2, [r3]
  47:.\Generated_Source\PSoC4/OUTPUT_SELECT.c **** }
  67              		.loc 1 47 0
ARM GAS  C:\Users\JOHNSO~1\AppData\Local\Temp\ccC7Qqli.s 			page 3


  68 003e BD46     		mov	sp, r7
  69 0040 04B0     		add	sp, sp, #16
  70              		@ sp needed
  71 0042 80BD     		pop	{r7, pc}
  72              	.L3:
  73              		.align	2
  74              	.L2:
  75 0044 00020440 		.word	1074004480
  76              		.cfi_endproc
  77              	.LFE0:
  78              		.size	OUTPUT_SELECT_Write, .-OUTPUT_SELECT_Write
  79              		.section	.text.OUTPUT_SELECT_SetDriveMode,"ax",%progbits
  80              		.align	2
  81              		.global	OUTPUT_SELECT_SetDriveMode
  82              		.code	16
  83              		.thumb_func
  84              		.type	OUTPUT_SELECT_SetDriveMode, %function
  85              	OUTPUT_SELECT_SetDriveMode:
  86              	.LFB1:
  48:.\Generated_Source\PSoC4/OUTPUT_SELECT.c **** 
  49:.\Generated_Source\PSoC4/OUTPUT_SELECT.c **** 
  50:.\Generated_Source\PSoC4/OUTPUT_SELECT.c **** /*******************************************************************************
  51:.\Generated_Source\PSoC4/OUTPUT_SELECT.c **** * Function Name: OUTPUT_SELECT_SetDriveMode
  52:.\Generated_Source\PSoC4/OUTPUT_SELECT.c **** ********************************************************************************
  53:.\Generated_Source\PSoC4/OUTPUT_SELECT.c **** *
  54:.\Generated_Source\PSoC4/OUTPUT_SELECT.c **** * Summary:
  55:.\Generated_Source\PSoC4/OUTPUT_SELECT.c **** *  Change the drive mode on the pins of the port.
  56:.\Generated_Source\PSoC4/OUTPUT_SELECT.c **** * 
  57:.\Generated_Source\PSoC4/OUTPUT_SELECT.c **** * Parameters:  
  58:.\Generated_Source\PSoC4/OUTPUT_SELECT.c **** *  mode:  Change the pins to one of the following drive modes.
  59:.\Generated_Source\PSoC4/OUTPUT_SELECT.c **** *
  60:.\Generated_Source\PSoC4/OUTPUT_SELECT.c **** *  OUTPUT_SELECT_DM_STRONG     Strong Drive 
  61:.\Generated_Source\PSoC4/OUTPUT_SELECT.c **** *  OUTPUT_SELECT_DM_OD_HI      Open Drain, Drives High 
  62:.\Generated_Source\PSoC4/OUTPUT_SELECT.c **** *  OUTPUT_SELECT_DM_OD_LO      Open Drain, Drives Low 
  63:.\Generated_Source\PSoC4/OUTPUT_SELECT.c **** *  OUTPUT_SELECT_DM_RES_UP     Resistive Pull Up 
  64:.\Generated_Source\PSoC4/OUTPUT_SELECT.c **** *  OUTPUT_SELECT_DM_RES_DWN    Resistive Pull Down 
  65:.\Generated_Source\PSoC4/OUTPUT_SELECT.c **** *  OUTPUT_SELECT_DM_RES_UPDWN  Resistive Pull Up/Down 
  66:.\Generated_Source\PSoC4/OUTPUT_SELECT.c **** *  OUTPUT_SELECT_DM_DIG_HIZ    High Impedance Digital 
  67:.\Generated_Source\PSoC4/OUTPUT_SELECT.c **** *  OUTPUT_SELECT_DM_ALG_HIZ    High Impedance Analog 
  68:.\Generated_Source\PSoC4/OUTPUT_SELECT.c **** *
  69:.\Generated_Source\PSoC4/OUTPUT_SELECT.c **** * Return: 
  70:.\Generated_Source\PSoC4/OUTPUT_SELECT.c **** *  None
  71:.\Generated_Source\PSoC4/OUTPUT_SELECT.c **** *
  72:.\Generated_Source\PSoC4/OUTPUT_SELECT.c **** *******************************************************************************/
  73:.\Generated_Source\PSoC4/OUTPUT_SELECT.c **** void OUTPUT_SELECT_SetDriveMode(uint8 mode) 
  74:.\Generated_Source\PSoC4/OUTPUT_SELECT.c **** {
  87              		.loc 1 74 0
  88              		.cfi_startproc
  89 0000 80B5     		push	{r7, lr}
  90              		.cfi_def_cfa_offset 8
  91              		.cfi_offset 7, -8
  92              		.cfi_offset 14, -4
  93 0002 82B0     		sub	sp, sp, #8
  94              		.cfi_def_cfa_offset 16
  95 0004 00AF     		add	r7, sp, #0
  96              		.cfi_def_cfa_register 7
  97 0006 021C     		mov	r2, r0
ARM GAS  C:\Users\JOHNSO~1\AppData\Local\Temp\ccC7Qqli.s 			page 4


  98 0008 FB1D     		add	r3, r7, #7
  99 000a 1A70     		strb	r2, [r3]
  75:.\Generated_Source\PSoC4/OUTPUT_SELECT.c **** 	SetP4PinDriveMode(OUTPUT_SELECT__0__SHIFT, mode);
 100              		.loc 1 75 0
 101 000c 114B     		ldr	r3, .L5
 102 000e 114A     		ldr	r2, .L5
 103 0010 1268     		ldr	r2, [r2]
 104 0012 0721     		mov	r1, #7
 105 0014 101C     		mov	r0, r2
 106 0016 8843     		bic	r0, r1
 107 0018 011C     		mov	r1, r0
 108 001a FA1D     		add	r2, r7, #7
 109 001c 1278     		ldrb	r2, [r2]
 110 001e 0A43     		orr	r2, r1
 111 0020 1A60     		str	r2, [r3]
  76:.\Generated_Source\PSoC4/OUTPUT_SELECT.c **** 	SetP4PinDriveMode(OUTPUT_SELECT__1__SHIFT, mode);
 112              		.loc 1 76 0
 113 0022 0C4B     		ldr	r3, .L5
 114 0024 0B4A     		ldr	r2, .L5
 115 0026 1268     		ldr	r2, [r2]
 116 0028 3821     		mov	r1, #56
 117 002a 101C     		mov	r0, r2
 118 002c 8843     		bic	r0, r1
 119 002e 011C     		mov	r1, r0
 120 0030 FA1D     		add	r2, r7, #7
 121 0032 1278     		ldrb	r2, [r2]
 122 0034 D200     		lsl	r2, r2, #3
 123 0036 0A43     		orr	r2, r1
 124 0038 1A60     		str	r2, [r3]
  77:.\Generated_Source\PSoC4/OUTPUT_SELECT.c **** 	SetP4PinDriveMode(OUTPUT_SELECT__2__SHIFT, mode);
 125              		.loc 1 77 0
 126 003a 064B     		ldr	r3, .L5
 127 003c 054A     		ldr	r2, .L5
 128 003e 1168     		ldr	r1, [r2]
 129 0040 054A     		ldr	r2, .L5+4
 130 0042 1140     		and	r1, r2
 131 0044 FA1D     		add	r2, r7, #7
 132 0046 1278     		ldrb	r2, [r2]
 133 0048 9201     		lsl	r2, r2, #6
 134 004a 0A43     		orr	r2, r1
 135 004c 1A60     		str	r2, [r3]
  78:.\Generated_Source\PSoC4/OUTPUT_SELECT.c **** }
 136              		.loc 1 78 0
 137 004e BD46     		mov	sp, r7
 138 0050 02B0     		add	sp, sp, #8
 139              		@ sp needed
 140 0052 80BD     		pop	{r7, pc}
 141              	.L6:
 142              		.align	2
 143              	.L5:
 144 0054 08020440 		.word	1074004488
 145 0058 3FFEFFFF 		.word	-449
 146              		.cfi_endproc
 147              	.LFE1:
 148              		.size	OUTPUT_SELECT_SetDriveMode, .-OUTPUT_SELECT_SetDriveMode
 149              		.section	.text.OUTPUT_SELECT_Read,"ax",%progbits
 150              		.align	2
ARM GAS  C:\Users\JOHNSO~1\AppData\Local\Temp\ccC7Qqli.s 			page 5


 151              		.global	OUTPUT_SELECT_Read
 152              		.code	16
 153              		.thumb_func
 154              		.type	OUTPUT_SELECT_Read, %function
 155              	OUTPUT_SELECT_Read:
 156              	.LFB2:
  79:.\Generated_Source\PSoC4/OUTPUT_SELECT.c **** 
  80:.\Generated_Source\PSoC4/OUTPUT_SELECT.c **** 
  81:.\Generated_Source\PSoC4/OUTPUT_SELECT.c **** /*******************************************************************************
  82:.\Generated_Source\PSoC4/OUTPUT_SELECT.c **** * Function Name: OUTPUT_SELECT_Read
  83:.\Generated_Source\PSoC4/OUTPUT_SELECT.c **** ********************************************************************************
  84:.\Generated_Source\PSoC4/OUTPUT_SELECT.c **** *
  85:.\Generated_Source\PSoC4/OUTPUT_SELECT.c **** * Summary:
  86:.\Generated_Source\PSoC4/OUTPUT_SELECT.c **** *  Read the current value on the pins of the Digital Port in right justified 
  87:.\Generated_Source\PSoC4/OUTPUT_SELECT.c **** *  form.
  88:.\Generated_Source\PSoC4/OUTPUT_SELECT.c **** *
  89:.\Generated_Source\PSoC4/OUTPUT_SELECT.c **** * Parameters:  
  90:.\Generated_Source\PSoC4/OUTPUT_SELECT.c **** *  None 
  91:.\Generated_Source\PSoC4/OUTPUT_SELECT.c **** *
  92:.\Generated_Source\PSoC4/OUTPUT_SELECT.c **** * Return: 
  93:.\Generated_Source\PSoC4/OUTPUT_SELECT.c **** *  Returns the current value of the Digital Port as a right justified number
  94:.\Generated_Source\PSoC4/OUTPUT_SELECT.c **** *  
  95:.\Generated_Source\PSoC4/OUTPUT_SELECT.c **** * Note:
  96:.\Generated_Source\PSoC4/OUTPUT_SELECT.c **** *  Macro OUTPUT_SELECT_ReadPS calls this function. 
  97:.\Generated_Source\PSoC4/OUTPUT_SELECT.c **** *  
  98:.\Generated_Source\PSoC4/OUTPUT_SELECT.c **** *******************************************************************************/
  99:.\Generated_Source\PSoC4/OUTPUT_SELECT.c **** uint8 OUTPUT_SELECT_Read(void) 
 100:.\Generated_Source\PSoC4/OUTPUT_SELECT.c **** {
 157              		.loc 1 100 0
 158              		.cfi_startproc
 159 0000 80B5     		push	{r7, lr}
 160              		.cfi_def_cfa_offset 8
 161              		.cfi_offset 7, -8
 162              		.cfi_offset 14, -4
 163 0002 00AF     		add	r7, sp, #0
 164              		.cfi_def_cfa_register 7
 101:.\Generated_Source\PSoC4/OUTPUT_SELECT.c ****     return (uint8)((OUTPUT_SELECT_PS & OUTPUT_SELECT_MASK) >> OUTPUT_SELECT_SHIFT);
 165              		.loc 1 101 0
 166 0004 044B     		ldr	r3, .L9
 167 0006 1B68     		ldr	r3, [r3]
 168 0008 DAB2     		uxtb	r2, r3
 169 000a 0723     		mov	r3, #7
 170 000c 1340     		and	r3, r2
 171 000e DBB2     		uxtb	r3, r3
 102:.\Generated_Source\PSoC4/OUTPUT_SELECT.c **** }
 172              		.loc 1 102 0
 173 0010 181C     		mov	r0, r3
 174 0012 BD46     		mov	sp, r7
 175              		@ sp needed
 176 0014 80BD     		pop	{r7, pc}
 177              	.L10:
 178 0016 C046     		.align	2
 179              	.L9:
 180 0018 04020440 		.word	1074004484
 181              		.cfi_endproc
 182              	.LFE2:
 183              		.size	OUTPUT_SELECT_Read, .-OUTPUT_SELECT_Read
ARM GAS  C:\Users\JOHNSO~1\AppData\Local\Temp\ccC7Qqli.s 			page 6


 184              		.section	.text.OUTPUT_SELECT_ReadDataReg,"ax",%progbits
 185              		.align	2
 186              		.global	OUTPUT_SELECT_ReadDataReg
 187              		.code	16
 188              		.thumb_func
 189              		.type	OUTPUT_SELECT_ReadDataReg, %function
 190              	OUTPUT_SELECT_ReadDataReg:
 191              	.LFB3:
 103:.\Generated_Source\PSoC4/OUTPUT_SELECT.c **** 
 104:.\Generated_Source\PSoC4/OUTPUT_SELECT.c **** 
 105:.\Generated_Source\PSoC4/OUTPUT_SELECT.c **** /*******************************************************************************
 106:.\Generated_Source\PSoC4/OUTPUT_SELECT.c **** * Function Name: OUTPUT_SELECT_ReadDataReg
 107:.\Generated_Source\PSoC4/OUTPUT_SELECT.c **** ********************************************************************************
 108:.\Generated_Source\PSoC4/OUTPUT_SELECT.c **** *
 109:.\Generated_Source\PSoC4/OUTPUT_SELECT.c **** * Summary:
 110:.\Generated_Source\PSoC4/OUTPUT_SELECT.c **** *  Read the current value assigned to a Digital Port's data output register
 111:.\Generated_Source\PSoC4/OUTPUT_SELECT.c **** *
 112:.\Generated_Source\PSoC4/OUTPUT_SELECT.c **** * Parameters:  
 113:.\Generated_Source\PSoC4/OUTPUT_SELECT.c **** *  None 
 114:.\Generated_Source\PSoC4/OUTPUT_SELECT.c **** *
 115:.\Generated_Source\PSoC4/OUTPUT_SELECT.c **** * Return: 
 116:.\Generated_Source\PSoC4/OUTPUT_SELECT.c **** *  Returns the current value assigned to the Digital Port's data output register
 117:.\Generated_Source\PSoC4/OUTPUT_SELECT.c **** *  
 118:.\Generated_Source\PSoC4/OUTPUT_SELECT.c **** *******************************************************************************/
 119:.\Generated_Source\PSoC4/OUTPUT_SELECT.c **** uint8 OUTPUT_SELECT_ReadDataReg(void) 
 120:.\Generated_Source\PSoC4/OUTPUT_SELECT.c **** {
 192              		.loc 1 120 0
 193              		.cfi_startproc
 194 0000 80B5     		push	{r7, lr}
 195              		.cfi_def_cfa_offset 8
 196              		.cfi_offset 7, -8
 197              		.cfi_offset 14, -4
 198 0002 00AF     		add	r7, sp, #0
 199              		.cfi_def_cfa_register 7
 121:.\Generated_Source\PSoC4/OUTPUT_SELECT.c ****     return (uint8)((OUTPUT_SELECT_DR & OUTPUT_SELECT_MASK) >> OUTPUT_SELECT_SHIFT);
 200              		.loc 1 121 0
 201 0004 044B     		ldr	r3, .L13
 202 0006 1B68     		ldr	r3, [r3]
 203 0008 DAB2     		uxtb	r2, r3
 204 000a 0723     		mov	r3, #7
 205 000c 1340     		and	r3, r2
 206 000e DBB2     		uxtb	r3, r3
 122:.\Generated_Source\PSoC4/OUTPUT_SELECT.c **** }
 207              		.loc 1 122 0
 208 0010 181C     		mov	r0, r3
 209 0012 BD46     		mov	sp, r7
 210              		@ sp needed
 211 0014 80BD     		pop	{r7, pc}
 212              	.L14:
 213 0016 C046     		.align	2
 214              	.L13:
 215 0018 00020440 		.word	1074004480
 216              		.cfi_endproc
 217              	.LFE3:
 218              		.size	OUTPUT_SELECT_ReadDataReg, .-OUTPUT_SELECT_ReadDataReg
 219              		.section	.text.OUTPUT_SELECT_ClearInterrupt,"ax",%progbits
 220              		.align	2
ARM GAS  C:\Users\JOHNSO~1\AppData\Local\Temp\ccC7Qqli.s 			page 7


 221              		.global	OUTPUT_SELECT_ClearInterrupt
 222              		.code	16
 223              		.thumb_func
 224              		.type	OUTPUT_SELECT_ClearInterrupt, %function
 225              	OUTPUT_SELECT_ClearInterrupt:
 226              	.LFB4:
 123:.\Generated_Source\PSoC4/OUTPUT_SELECT.c **** 
 124:.\Generated_Source\PSoC4/OUTPUT_SELECT.c **** 
 125:.\Generated_Source\PSoC4/OUTPUT_SELECT.c **** /* If Interrupts Are Enabled for this Pins component */ 
 126:.\Generated_Source\PSoC4/OUTPUT_SELECT.c **** #if defined(OUTPUT_SELECT_INTSTAT) 
 127:.\Generated_Source\PSoC4/OUTPUT_SELECT.c **** 
 128:.\Generated_Source\PSoC4/OUTPUT_SELECT.c ****     /*******************************************************************************
 129:.\Generated_Source\PSoC4/OUTPUT_SELECT.c ****     * Function Name: OUTPUT_SELECT_ClearInterrupt
 130:.\Generated_Source\PSoC4/OUTPUT_SELECT.c ****     ********************************************************************************
 131:.\Generated_Source\PSoC4/OUTPUT_SELECT.c ****     *
 132:.\Generated_Source\PSoC4/OUTPUT_SELECT.c ****     * Summary:
 133:.\Generated_Source\PSoC4/OUTPUT_SELECT.c ****     *  Clears any active interrupts attached to port and returns the value of the 
 134:.\Generated_Source\PSoC4/OUTPUT_SELECT.c ****     *  interrupt status register.
 135:.\Generated_Source\PSoC4/OUTPUT_SELECT.c ****     *
 136:.\Generated_Source\PSoC4/OUTPUT_SELECT.c ****     * Parameters:  
 137:.\Generated_Source\PSoC4/OUTPUT_SELECT.c ****     *  None 
 138:.\Generated_Source\PSoC4/OUTPUT_SELECT.c ****     *
 139:.\Generated_Source\PSoC4/OUTPUT_SELECT.c ****     * Return: 
 140:.\Generated_Source\PSoC4/OUTPUT_SELECT.c ****     *  Returns the value of the interrupt status register
 141:.\Generated_Source\PSoC4/OUTPUT_SELECT.c ****     *  
 142:.\Generated_Source\PSoC4/OUTPUT_SELECT.c ****     *******************************************************************************/
 143:.\Generated_Source\PSoC4/OUTPUT_SELECT.c ****     uint8 OUTPUT_SELECT_ClearInterrupt(void) 
 144:.\Generated_Source\PSoC4/OUTPUT_SELECT.c ****     {
 227              		.loc 1 144 0
 228              		.cfi_startproc
 229 0000 80B5     		push	{r7, lr}
 230              		.cfi_def_cfa_offset 8
 231              		.cfi_offset 7, -8
 232              		.cfi_offset 14, -4
 233 0002 82B0     		sub	sp, sp, #8
 234              		.cfi_def_cfa_offset 16
 235 0004 00AF     		add	r7, sp, #0
 236              		.cfi_def_cfa_register 7
 145:.\Generated_Source\PSoC4/OUTPUT_SELECT.c **** 		uint8 maskedStatus = (uint8)(OUTPUT_SELECT_INTSTAT & OUTPUT_SELECT_MASK);
 237              		.loc 1 145 0
 238 0006 084B     		ldr	r3, .L17
 239 0008 1B68     		ldr	r3, [r3]
 240 000a D9B2     		uxtb	r1, r3
 241 000c FB1D     		add	r3, r7, #7
 242 000e 0722     		mov	r2, #7
 243 0010 0A40     		and	r2, r1
 244 0012 1A70     		strb	r2, [r3]
 146:.\Generated_Source\PSoC4/OUTPUT_SELECT.c **** 		OUTPUT_SELECT_INTSTAT = maskedStatus;
 245              		.loc 1 146 0
 246 0014 044B     		ldr	r3, .L17
 247 0016 FA1D     		add	r2, r7, #7
 248 0018 1278     		ldrb	r2, [r2]
 249 001a 1A60     		str	r2, [r3]
 147:.\Generated_Source\PSoC4/OUTPUT_SELECT.c ****         return maskedStatus >> OUTPUT_SELECT_SHIFT;
 250              		.loc 1 147 0
 251 001c FB1D     		add	r3, r7, #7
 252 001e 1B78     		ldrb	r3, [r3]
ARM GAS  C:\Users\JOHNSO~1\AppData\Local\Temp\ccC7Qqli.s 			page 8


 148:.\Generated_Source\PSoC4/OUTPUT_SELECT.c ****     }
 253              		.loc 1 148 0
 254 0020 181C     		mov	r0, r3
 255 0022 BD46     		mov	sp, r7
 256 0024 02B0     		add	sp, sp, #8
 257              		@ sp needed
 258 0026 80BD     		pop	{r7, pc}
 259              	.L18:
 260              		.align	2
 261              	.L17:
 262 0028 10020440 		.word	1074004496
 263              		.cfi_endproc
 264              	.LFE4:
 265              		.size	OUTPUT_SELECT_ClearInterrupt, .-OUTPUT_SELECT_ClearInterrupt
 266              		.text
 267              	.Letext0:
 268              		.file 2 ".\\Generated_Source\\PSoC4\\cytypes.h"